target datalayout = "e-m:e-p270:32:32-p271:32:32-p272:64:64-i64:64-i128:128-f80:128-n8:16:32:64-S128"
target triple = "x86_64-pc-linux-gnu"

%struct.OSSL_TIME = type { i64 }
%struct.crypto_ex_data_st = type { ptr, ptr }
%struct.CRYPTO_REF_COUNT = type { i32 }
%struct.ssl_ctx_st = type { ptr, ptr, ptr, ptr, ptr, ptr, ptr, i64, ptr, ptr, i32, %struct.OSSL_TIME, ptr, ptr, ptr, %struct.anon.6, %struct.CRYPTO_REF_COUNT, ptr, ptr, ptr, ptr, ptr, ptr, ptr, ptr, ptr, %struct.crypto_ex_data_st, ptr, ptr, ptr, ptr, ptr, ptr, ptr, i64, i32, i32, i32, i64, ptr, ptr, i32, ptr, ptr, i32, i64, [32 x i8], ptr, ptr, ptr, i32, ptr, ptr, ptr, i64, i64, i64, i64, ptr, ptr, ptr, ptr, ptr, %struct.anon.7, ptr, ptr, ptr, ptr, %struct.srp_ctx_st, %struct.dane_ctx_st, ptr, ptr, ptr, ptr, i32, i32, ptr, ptr, i64, i64, ptr, ptr, ptr, i64, ptr, ptr, i32, ptr, ptr, ptr, [14 x i32], [24 x ptr], [14 x ptr], [14 x i64], i64, ptr, ptr, ptr, i64, i64, ptr, i64, i64, i32, i32, i32, i32, ptr, i64, ptr, i64, i64, ptr, ptr }
%struct.anon.6 = type { i32, i32, i32, i32, i32, i32, i32, i32, i32, i32, i32 }
%struct.anon.7 = type { ptr, ptr, [16 x i8], ptr, ptr, ptr, ptr, ptr, i32, i8, i64, ptr, i64, ptr, i64, ptr, i64, ptr, ptr, i64, ptr, ptr, ptr, i64, ptr, ptr, ptr, ptr, [32 x i8] }
%struct.srp_ctx_st = type { ptr, ptr, ptr, ptr, ptr, ptr, ptr, ptr, ptr, ptr, ptr, ptr, ptr, ptr, i32, i64 }
%struct.dane_ctx_st = type { ptr, ptr, i8, i64 }
%struct.cert_st = type { ptr, ptr, ptr, i32, i32, ptr, i64, ptr, i64, ptr, i64, ptr, i64, ptr, ptr, ptr, ptr, %struct.custom_ext_methods, ptr, i32, ptr, ptr, %struct.CRYPTO_REF_COUNT }
%struct.custom_ext_methods = type { ptr, i64 }

@libctx = internal global ptr null, align 8
@.str.14 = private unnamed_addr constant [29 x i8] c"../openssl/test/sslapitest.c\00", align 1
@.str.218 = private unnamed_addr constant [2 x i8] c"0\00", align 1
@.str.278 = private unnamed_addr constant [2 x i8] c"2\00", align 1
@.str.394 = private unnamed_addr constant [56 x i8] c"ctx = SSL_CTX_new_ex(libctx, NULL, TLS_server_method())\00", align 1
@.str.986 = private unnamed_addr constant [70 x i8] c"SSL_CTX_set1_sigalgs_list(ctx, \22RSA+SHA256:?nonexistent:?RSA+SHA512\22)\00", align 1
@.str.987 = private unnamed_addr constant [36 x i8] c"RSA+SHA256:?nonexistent:?RSA+SHA512\00", align 1
@.str.988 = private unnamed_addr constant [27 x i8] c"ctx->cert->conf_sigalgslen\00", align 1
@.str.989 = private unnamed_addr constant [27 x i8] c"ctx->cert->conf_sigalgs[0]\00", align 1
@.str.990 = private unnamed_addr constant [31 x i8] c"TLSEXT_SIGALG_rsa_pkcs1_sha256\00", align 1
@.str.991 = private unnamed_addr constant [27 x i8] c"ctx->cert->conf_sigalgs[1]\00", align 1
@.str.992 = private unnamed_addr constant [31 x i8] c"TLSEXT_SIGALG_rsa_pkcs1_sha512\00", align 1
@.str.993 = private unnamed_addr constant [77 x i8] c"SSL_CTX_set1_client_sigalgs_list(ctx, \22RSA+SHA256:?nonexistent:?RSA+SHA512\22)\00", align 1
@.str.994 = private unnamed_addr constant [29 x i8] c"ctx->cert->client_sigalgslen\00", align 1
@.str.995 = private unnamed_addr constant [29 x i8] c"ctx->cert->client_sigalgs[0]\00", align 1
@.str.996 = private unnamed_addr constant [29 x i8] c"ctx->cert->client_sigalgs[1]\00", align 1
@.str.997 = private unnamed_addr constant [45 x i8] c"SSL_CTX_set1_groups_list(ctx, \22nonexistent\22)\00", align 1
@.str.998 = private unnamed_addr constant [12 x i8] c"nonexistent\00", align 1
@.str.999 = private unnamed_addr constant [75 x i8] c"SSL_CTX_set1_groups_list(ctx, \22?nonexistent1:?nonexistent2:?nonexistent3\22)\00", align 1
@.str.1000 = private unnamed_addr constant [42 x i8] c"?nonexistent1:?nonexistent2:?nonexistent3\00", align 1
@.str.1001 = private unnamed_addr constant [51 x i8] c"SSL_CTX_set1_groups_list(ctx, \22P-256:nonexistent\22)\00", align 1
@.str.1002 = private unnamed_addr constant [18 x i8] c"P-256:nonexistent\00", align 1
@.str.1003 = private unnamed_addr constant [59 x i8] c"SSL_CTX_set1_groups_list(ctx, \22P-384:?nonexistent:?P-521\22)\00", align 1
@.str.1004 = private unnamed_addr constant [26 x i8] c"P-384:?nonexistent:?P-521\00", align 1
@.str.1005 = private unnamed_addr constant [29 x i8] c"ctx->ext.supportedgroups_len\00", align 1
@.str.1006 = private unnamed_addr constant [28 x i8] c"ctx->ext.supportedgroups[0]\00", align 1
@.str.1007 = private unnamed_addr constant [28 x i8] c"OSSL_TLS_GROUP_ID_secp384r1\00", align 1
@.str.1008 = private unnamed_addr constant [28 x i8] c"ctx->ext.supportedgroups[1]\00", align 1
@.str.1009 = private unnamed_addr constant [28 x i8] c"OSSL_TLS_GROUP_ID_secp521r1\00", align 1

; Function Attrs: nounwind uwtable
define internal i32 @test_unknown_sigalgs_groups() #0 {
  %1 = alloca i32, align 4
  %2 = alloca ptr, align 8
  call void @llvm.lifetime.start.p0(i64 4, ptr %1) #9
  store i32 0, ptr %1, align 4, !tbaa !13
  call void @llvm.lifetime.start.p0(i64 8, ptr %2) #9
  store ptr null, ptr %2, align 8, !tbaa !19
  %3 = load ptr, ptr @libctx, align 8, !tbaa !4
  %4 = call ptr @TLS_server_method()
  %5 = call ptr @SSL_CTX_new_ex(ptr noundef %3, ptr noundef null, ptr noundef %4)
  store ptr %5, ptr %2, align 8, !tbaa !19
  %6 = call i32 @test_ptr(ptr noundef @.str.14, i32 noundef 9813, ptr noundef @.str.394, ptr noundef %5)
  %7 = icmp ne i32 %6, 0
  br i1 %7, label %9, label %8

8:                                                ; preds = %0
  br label %142

9:                                                ; preds = %0
  %10 = load ptr, ptr %2, align 8, !tbaa !19
  %11 = call i64 @SSL_CTX_ctrl(ptr noundef %10, i32 noundef 98, i64 noundef 0, ptr noundef @.str.987)
  %12 = trunc i64 %11 to i32
  %13 = call i32 @test_int_gt(ptr noundef @.str.14, i32 noundef 9818, ptr noundef @.str.986, ptr noundef @.str.218, i32 noundef %12, i32 noundef 0)
  %14 = icmp ne i32 %13, 0
  br i1 %14, label %16, label %15

15:                                               ; preds = %9
  br label %142

16:                                               ; preds = %9
  %17 = load ptr, ptr %2, align 8, !tbaa !19
  %18 = getelementptr inbounds nuw %struct.ssl_ctx_st, ptr %17, i32 0, i32 39
  %19 = load ptr, ptr %18, align 8, !tbaa !88
  %20 = getelementptr inbounds nuw %struct.cert_st, ptr %19, i32 0, i32 10
  %21 = load i64, ptr %20, align 8, !tbaa !114
  %22 = call i32 @test_size_t_eq(ptr noundef @.str.14, i32 noundef 9820, ptr noundef @.str.988, ptr noundef @.str.278, i64 noundef %21, i64 noundef 2)
  %23 = icmp ne i32 %22, 0
  br i1 %23, label %24, label %46

24:                                               ; preds = %16
  %25 = load ptr, ptr %2, align 8, !tbaa !19
  %26 = getelementptr inbounds nuw %struct.ssl_ctx_st, ptr %25, i32 0, i32 39
  %27 = load ptr, ptr %26, align 8, !tbaa !88
  %28 = getelementptr inbounds nuw %struct.cert_st, ptr %27, i32 0, i32 9
  %29 = load ptr, ptr %28, align 8, !tbaa !118
  %30 = getelementptr inbounds i16, ptr %29, i64 0
  %31 = load i16, ptr %30, align 2, !tbaa !119
  %32 = zext i16 %31 to i32
  %33 = call i32 @test_int_eq(ptr noundef @.str.14, i32 noundef 9821, ptr noundef @.str.989, ptr noundef @.str.990, i32 noundef %32, i32 noundef 1025)
  %34 = icmp ne i32 %33, 0
  br i1 %34, label %35, label %46

35:                                               ; preds = %24
  %36 = load ptr, ptr %2, align 8, !tbaa !19
  %37 = getelementptr inbounds nuw %struct.ssl_ctx_st, ptr %36, i32 0, i32 39
  %38 = load ptr, ptr %37, align 8, !tbaa !88
  %39 = getelementptr inbounds nuw %struct.cert_st, ptr %38, i32 0, i32 9
  %40 = load ptr, ptr %39, align 8, !tbaa !118
  %41 = getelementptr inbounds i16, ptr %40, i64 1
  %42 = load i16, ptr %41, align 2, !tbaa !119
  %43 = zext i16 %42 to i32
  %44 = call i32 @test_int_eq(ptr noundef @.str.14, i32 noundef 9822, ptr noundef @.str.991, ptr noundef @.str.992, i32 noundef %43, i32 noundef 1537)
  %45 = icmp ne i32 %44, 0
  br i1 %45, label %47, label %46

46:                                               ; preds = %35, %24, %16
  br label %142

47:                                               ; preds = %35
  %48 = load ptr, ptr %2, align 8, !tbaa !19
  %49 = call i64 @SSL_CTX_ctrl(ptr noundef %48, i32 noundef 102, i64 noundef 0, ptr noundef @.str.987)
  %50 = trunc i64 %49 to i32
  %51 = call i32 @test_int_gt(ptr noundef @.str.14, i32 noundef 9827, ptr noundef @.str.993, ptr noundef @.str.218, i32 noundef %50, i32 noundef 0)
  %52 = icmp ne i32 %51, 0
  br i1 %52, label %54, label %53

53:                                               ; preds = %47
  br label %142

54:                                               ; preds = %47
  %55 = load ptr, ptr %2, align 8, !tbaa !19
  %56 = getelementptr inbounds nuw %struct.ssl_ctx_st, ptr %55, i32 0, i32 39
  %57 = load ptr, ptr %56, align 8, !tbaa !88
  %58 = getelementptr inbounds nuw %struct.cert_st, ptr %57, i32 0, i32 12
  %59 = load i64, ptr %58, align 8, !tbaa !121
  %60 = call i32 @test_size_t_eq(ptr noundef @.str.14, i32 noundef 9829, ptr noundef @.str.994, ptr noundef @.str.278, i64 noundef %59, i64 noundef 2)
  %61 = icmp ne i32 %60, 0
  br i1 %61, label %62, label %84

62:                                               ; preds = %54
  %63 = load ptr, ptr %2, align 8, !tbaa !19
  %64 = getelementptr inbounds nuw %struct.ssl_ctx_st, ptr %63, i32 0, i32 39
  %65 = load ptr, ptr %64, align 8, !tbaa !88
  %66 = getelementptr inbounds nuw %struct.cert_st, ptr %65, i32 0, i32 11
  %67 = load ptr, ptr %66, align 8, !tbaa !122
  %68 = getelementptr inbounds i16, ptr %67, i64 0
  %69 = load i16, ptr %68, align 2, !tbaa !119
  %70 = zext i16 %69 to i32
  %71 = call i32 @test_int_eq(ptr noundef @.str.14, i32 noundef 9830, ptr noundef @.str.995, ptr noundef @.str.990, i32 noundef %70, i32 noundef 1025)
  %72 = icmp ne i32 %71, 0
  br i1 %72, label %73, label %84

73:                                               ; preds = %62
  %74 = load ptr, ptr %2, align 8, !tbaa !19
  %75 = getelementptr inbounds nuw %struct.ssl_ctx_st, ptr %74, i32 0, i32 39
  %76 = load ptr, ptr %75, align 8, !tbaa !88
  %77 = getelementptr inbounds nuw %struct.cert_st, ptr %76, i32 0, i32 11
  %78 = load ptr, ptr %77, align 8, !tbaa !122
  %79 = getelementptr inbounds i16, ptr %78, i64 1
  %80 = load i16, ptr %79, align 2, !tbaa !119
  %81 = zext i16 %80 to i32
  %82 = call i32 @test_int_eq(ptr noundef @.str.14, i32 noundef 9831, ptr noundef @.str.996, ptr noundef @.str.992, i32 noundef %81, i32 noundef 1537)
  %83 = icmp ne i32 %82, 0
  br i1 %83, label %85, label %84

84:                                               ; preds = %73, %62, %54
  br label %142

85:                                               ; preds = %73
  %86 = load ptr, ptr %2, align 8, !tbaa !19
  %87 = call i64 @SSL_CTX_ctrl(ptr noundef %86, i32 noundef 92, i64 noundef 0, ptr noundef @.str.998)
  %88 = trunc i64 %87 to i32
  %89 = call i32 @test_int_le(ptr noundef @.str.14, i32 noundef 9836, ptr noundef @.str.997, ptr noundef @.str.218, i32 noundef %88, i32 noundef 0)
  %90 = icmp ne i32 %89, 0
  br i1 %90, label %92, label %91

91:                                               ; preds = %85
  br label %142

92:                                               ; preds = %85
  %93 = load ptr, ptr %2, align 8, !tbaa !19
  %94 = call i64 @SSL_CTX_ctrl(ptr noundef %93, i32 noundef 92, i64 noundef 0, ptr noundef @.str.1000)
  %95 = trunc i64 %94 to i32
  %96 = call i32 @test_int_le(ptr noundef @.str.14, i32 noundef 9841, ptr noundef @.str.999, ptr noundef @.str.218, i32 noundef %95, i32 noundef 0)
  %97 = icmp ne i32 %96, 0
  br i1 %97, label %99, label %98

98:                                               ; preds = %92
  br label %142

99:                                               ; preds = %92
  %100 = load ptr, ptr %2, align 8, !tbaa !19
  %101 = call i64 @SSL_CTX_ctrl(ptr noundef %100, i32 noundef 92, i64 noundef 0, ptr noundef @.str.1002)
  %102 = trunc i64 %101 to i32
  %103 = call i32 @test_int_le(ptr noundef @.str.14, i32 noundef 9847, ptr noundef @.str.1001, ptr noundef @.str.218, i32 noundef %102, i32 noundef 0)
  %104 = icmp ne i32 %103, 0
  br i1 %104, label %106, label %105

105:                                              ; preds = %99
  br label %142

106:                                              ; preds = %99
  %107 = load ptr, ptr %2, align 8, !tbaa !19
  %108 = call i64 @SSL_CTX_ctrl(ptr noundef %107, i32 noundef 92, i64 noundef 0, ptr noundef @.str.1004)
  %109 = trunc i64 %108 to i32
  %110 = call i32 @test_int_gt(ptr noundef @.str.14, i32 noundef 9852, ptr noundef @.str.1003, ptr noundef @.str.218, i32 noundef %109, i32 noundef 0)
  %111 = icmp ne i32 %110, 0
  br i1 %111, label %113, label %112

112:                                              ; preds = %106
  br label %142

113:                                              ; preds = %106
  %114 = load ptr, ptr %2, align 8, !tbaa !19
  %115 = getelementptr inbounds nuw %struct.ssl_ctx_st, ptr %114, i32 0, i32 63
  %116 = getelementptr inbounds nuw %struct.anon.7, ptr %115, i32 0, i32 12
  %117 = load i64, ptr %116, align 8, !tbaa !123
  %118 = call i32 @test_size_t_eq(ptr noundef @.str.14, i32 noundef 9854, ptr noundef @.str.1005, ptr noundef @.str.278, i64 noundef %117, i64 noundef 2)
  %119 = icmp ne i32 %118, 0
  br i1 %119, label %120, label %140

120:                                              ; preds = %113
  %121 = load ptr, ptr %2, align 8, !tbaa !19
  %122 = getelementptr inbounds nuw %struct.ssl_ctx_st, ptr %121, i32 0, i32 63
  %123 = getelementptr inbounds nuw %struct.anon.7, ptr %122, i32 0, i32 13
  %124 = load ptr, ptr %123, align 8, !tbaa !124
  %125 = getelementptr inbounds i16, ptr %124, i64 0
  %126 = load i16, ptr %125, align 2, !tbaa !119
  %127 = zext i16 %126 to i32
  %128 = call i32 @test_int_eq(ptr noundef @.str.14, i32 noundef 9855, ptr noundef @.str.1006, ptr noundef @.str.1007, i32 noundef %127, i32 noundef 24)
  %129 = icmp ne i32 %128, 0
  br i1 %129, label %130, label %140

130:                                              ; preds = %120
  %131 = load ptr, ptr %2, align 8, !tbaa !19
  %132 = getelementptr inbounds nuw %struct.ssl_ctx_st, ptr %131, i32 0, i32 63
  %133 = getelementptr inbounds nuw %struct.anon.7, ptr %132, i32 0, i32 13
  %134 = load ptr, ptr %133, align 8, !tbaa !124
  %135 = getelementptr inbounds i16, ptr %134, i64 1
  %136 = load i16, ptr %135, align 2, !tbaa !119
  %137 = zext i16 %136 to i32
  %138 = call i32 @test_int_eq(ptr noundef @.str.14, i32 noundef 9856, ptr noundef @.str.1008, ptr noundef @.str.1009, i32 noundef %137, i32 noundef 25)
  %139 = icmp ne i32 %138, 0
  br i1 %139, label %141, label %140

140:                                              ; preds = %130, %120, %113
  br label %142

141:                                              ; preds = %130
  store i32 1, ptr %1, align 4, !tbaa !13
  br label %142

142:                                              ; preds = %141, %140, %112, %105, %98, %91, %84, %53, %46, %15, %8
  %143 = load ptr, ptr %2, align 8, !tbaa !19
  call void @SSL_CTX_free(ptr noundef %143)
  %144 = load i32, ptr %1, align 4, !tbaa !13
  call void @llvm.lifetime.end.p0(i64 8, ptr %2) #9
  call void @llvm.lifetime.end.p0(i64 4, ptr %1) #9
  ret i32 %144
}