; Function Attrs: nounwind uwtable
define internal range(i32 0, 2) i32 @test_unknown_sigalgs_groups() #1 {
  %1 = load ptr, ptr @libctx, align 8, !tbaa !4
  %2 = tail call ptr @TLS_server_method() #24
  %3 = tail call ptr @SSL_CTX_new_ex(ptr noundef %1, ptr noundef null, ptr noundef %2) #24
  %4 = tail call i32 @test_ptr(ptr noundef nonnull @.str.14, i32 noundef 9813, ptr noundef nonnull @.str.394, ptr noundef %3) #24
  %.not = icmp eq i32 %4, 0
  br i1 %.not, label %86, label %5

5:                                                ; preds = %0
  %6 = tail call i64 @SSL_CTX_ctrl(ptr noundef %3, i32 noundef 98, i64 noundef 0, ptr noundef nonnull @.str.987) #24
  %7 = trunc i64 %6 to i32
  %8 = tail call i32 @test_int_gt(ptr noundef nonnull @.str.14, i32 noundef 9818, ptr noundef nonnull @.str.986, ptr noundef nonnull @.str.218, i32 noundef %7, i32 noundef 0) #24
  %.not16 = icmp eq i32 %8, 0
  br i1 %.not16, label %86, label %9

9:                                                ; preds = %5
  %10 = getelementptr inbounds nuw i8, ptr %3, i64 344
  %11 = load ptr, ptr %10, align 8, !tbaa !91
  %12 = getelementptr inbounds nuw i8, ptr %11, i64 72
  %13 = load i64, ptr %12, align 8, !tbaa !117
  %14 = tail call i32 @test_size_t_eq(ptr noundef nonnull @.str.14, i32 noundef 9820, ptr noundef nonnull @.str.988, ptr noundef nonnull @.str.278, i64 noundef %13, i64 noundef 2) #24
  %.not17 = icmp eq i32 %14, 0
  br i1 %.not17, label %86, label %15

15:                                               ; preds = %9
  %16 = load ptr, ptr %10, align 8, !tbaa !91
  %17 = getelementptr inbounds nuw i8, ptr %16, i64 64
  %18 = load ptr, ptr %17, align 8, !tbaa !121
  %19 = load i16, ptr %18, align 2, !tbaa !122
  %20 = zext i16 %19 to i32
  %21 = tail call i32 @test_int_eq(ptr noundef nonnull @.str.14, i32 noundef 9821, ptr noundef nonnull @.str.989, ptr noundef nonnull @.str.990, i32 noundef %20, i32 noundef 1025) #24
  %.not18 = icmp eq i32 %21, 0
  br i1 %.not18, label %86, label %22

22:                                               ; preds = %15
  %23 = load ptr, ptr %10, align 8, !tbaa !91
  %24 = getelementptr inbounds nuw i8, ptr %23, i64 64
  %25 = load ptr, ptr %24, align 8, !tbaa !121
  %26 = getelementptr inbounds nuw i8, ptr %25, i64 2
  %27 = load i16, ptr %26, align 2, !tbaa !122
  %28 = zext i16 %27 to i32
  %29 = tail call i32 @test_int_eq(ptr noundef nonnull @.str.14, i32 noundef 9822, ptr noundef nonnull @.str.991, ptr noundef nonnull @.str.992, i32 noundef %28, i32 noundef 1537) #24
  %.not19 = icmp eq i32 %29, 0
  br i1 %.not19, label %86, label %30

30:                                               ; preds = %22
  %31 = tail call i64 @SSL_CTX_ctrl(ptr noundef nonnull %3, i32 noundef 102, i64 noundef 0, ptr noundef nonnull @.str.987) #24
  %32 = trunc i64 %31 to i32
  %33 = tail call i32 @test_int_gt(ptr noundef nonnull @.str.14, i32 noundef 9827, ptr noundef nonnull @.str.993, ptr noundef nonnull @.str.218, i32 noundef %32, i32 noundef 0) #24
  %.not20 = icmp eq i32 %33, 0
  br i1 %.not20, label %86, label %34

34:                                               ; preds = %30
  %35 = load ptr, ptr %10, align 8, !tbaa !91
  %36 = getelementptr inbounds nuw i8, ptr %35, i64 88
  %37 = load i64, ptr %36, align 8, !tbaa !124
  %38 = tail call i32 @test_size_t_eq(ptr noundef nonnull @.str.14, i32 noundef 9829, ptr noundef nonnull @.str.994, ptr noundef nonnull @.str.278, i64 noundef %37, i64 noundef 2) #24
  %.not21 = icmp eq i32 %38, 0
  br i1 %.not21, label %86, label %39

39:                                               ; preds = %34
  %40 = load ptr, ptr %10, align 8, !tbaa !91
  %41 = getelementptr inbounds nuw i8, ptr %40, i64 80
  %42 = load ptr, ptr %41, align 8, !tbaa !125
  %43 = load i16, ptr %42, align 2, !tbaa !122
  %44 = zext i16 %43 to i32
  %45 = tail call i32 @test_int_eq(ptr noundef nonnull @.str.14, i32 noundef 9830, ptr noundef nonnull @.str.995, ptr noundef nonnull @.str.990, i32 noundef %44, i32 noundef 1025) #24
  %.not22 = icmp eq i32 %45, 0
  br i1 %.not22, label %86, label %46

46:                                               ; preds = %39
  %47 = load ptr, ptr %10, align 8, !tbaa !91
  %48 = getelementptr inbounds nuw i8, ptr %47, i64 80
  %49 = load ptr, ptr %48, align 8, !tbaa !125
  %50 = getelementptr inbounds nuw i8, ptr %49, i64 2
  %51 = load i16, ptr %50, align 2, !tbaa !122
  %52 = zext i16 %51 to i32
  %53 = tail call i32 @test_int_eq(ptr noundef nonnull @.str.14, i32 noundef 9831, ptr noundef nonnull @.str.996, ptr noundef nonnull @.str.992, i32 noundef %52, i32 noundef 1537) #24
  %.not23 = icmp eq i32 %53, 0
  br i1 %.not23, label %86, label %54

54:                                               ; preds = %46
  %55 = tail call i64 @SSL_CTX_ctrl(ptr noundef nonnull %3, i32 noundef 92, i64 noundef 0, ptr noundef nonnull @.str.998) #24
  %56 = trunc i64 %55 to i32
  %57 = tail call i32 @test_int_le(ptr noundef nonnull @.str.14, i32 noundef 9836, ptr noundef nonnull @.str.997, ptr noundef nonnull @.str.218, i32 noundef %56, i32 noundef 0) #24
  %.not24 = icmp eq i32 %57, 0
  br i1 %.not24, label %86, label %58

58:                                               ; preds = %54
  %59 = tail call i64 @SSL_CTX_ctrl(ptr noundef nonnull %3, i32 noundef 92, i64 noundef 0, ptr noundef nonnull @.str.1000) #24
  %60 = trunc i64 %59 to i32
  %61 = tail call i32 @test_int_le(ptr noundef nonnull @.str.14, i32 noundef 9841, ptr noundef nonnull @.str.999, ptr noundef nonnull @.str.218, i32 noundef %60, i32 noundef 0) #24
  %.not25 = icmp eq i32 %61, 0
  br i1 %.not25, label %86, label %62

62:                                               ; preds = %58
  %63 = tail call i64 @SSL_CTX_ctrl(ptr noundef nonnull %3, i32 noundef 92, i64 noundef 0, ptr noundef nonnull @.str.1002) #24
  %64 = trunc i64 %63 to i32
  %65 = tail call i32 @test_int_le(ptr noundef nonnull @.str.14, i32 noundef 9847, ptr noundef nonnull @.str.1001, ptr noundef nonnull @.str.218, i32 noundef %64, i32 noundef 0) #24
  %.not26 = icmp eq i32 %65, 0
  br i1 %.not26, label %86, label %66

66:                                               ; preds = %62
  %67 = tail call i64 @SSL_CTX_ctrl(ptr noundef nonnull %3, i32 noundef 92, i64 noundef 0, ptr noundef nonnull @.str.1004) #24
  %68 = trunc i64 %67 to i32
  %69 = tail call i32 @test_int_gt(ptr noundef nonnull @.str.14, i32 noundef 9852, ptr noundef nonnull @.str.1003, ptr noundef nonnull @.str.218, i32 noundef %68, i32 noundef 0) #24
  %.not27 = icmp eq i32 %69, 0
  br i1 %.not27, label %86, label %70

70:                                               ; preds = %66
  %71 = getelementptr inbounds nuw i8, ptr %3, i64 656
  %72 = load i64, ptr %71, align 8, !tbaa !126
  %73 = tail call i32 @test_size_t_eq(ptr noundef nonnull @.str.14, i32 noundef 9854, ptr noundef nonnull @.str.1005, ptr noundef nonnull @.str.278, i64 noundef %72, i64 noundef 2) #24
  %.not28 = icmp eq i32 %73, 0
  br i1 %.not28, label %86, label %74

74:                                               ; preds = %70
  %75 = getelementptr inbounds nuw i8, ptr %3, i64 664
  %76 = load ptr, ptr %75, align 8, !tbaa !127
  %77 = load i16, ptr %76, align 2, !tbaa !122
  %78 = zext i16 %77 to i32
  %79 = tail call i32 @test_int_eq(ptr noundef nonnull @.str.14, i32 noundef 9855, ptr noundef nonnull @.str.1006, ptr noundef nonnull @.str.1007, i32 noundef %78, i32 noundef 24) #24
  %.not29 = icmp eq i32 %79, 0
  br i1 %.not29, label %86, label %80

80:                                               ; preds = %74
  %81 = load ptr, ptr %75, align 8, !tbaa !127
  %82 = getelementptr inbounds nuw i8, ptr %81, i64 2
  %83 = load i16, ptr %82, align 2, !tbaa !122
  %84 = zext i16 %83 to i32
  %85 = tail call i32 @test_int_eq(ptr noundef nonnull @.str.14, i32 noundef 9856, ptr noundef nonnull @.str.1008, ptr noundef nonnull @.str.1009, i32 noundef %84, i32 noundef 25) #24
  %.not30 = icmp ne i32 %85, 0
  %spec.select = zext i1 %.not30 to i32
  br label %86

86:                                               ; preds = %80, %70, %74, %66, %62, %58, %54, %34, %39, %46, %30, %9, %15, %22, %5, %0
  %.0 = phi i32 [ 0, %74 ], [ 0, %70 ], [ 0, %66 ], [ 0, %62 ], [ 0, %58 ], [ 0, %54 ], [ 0, %46 ], [ 0, %39 ], [ 0, %34 ], [ 0, %30 ], [ 0, %22 ], [ 0, %15 ], [ 0, %9 ], [ 0, %5 ], [ 0, %0 ], [ %spec.select, %80 ]
  tail call void @SSL_CTX_free(ptr noundef %3) #24
  ret i32 %.0
}